; Function Attrs: mustprogress nounwind uwtable
define dso_local void @_ZN4node22PerIsolatePlatformData17RunForegroundTaskEP10uv_timer_s(ptr noundef %handle) #3 align 2 {
entry:
  %agg.tmp = alloca %"class.std::unique_ptr.22", align 8
  %0 = ptrtoint ptr %handle to i64
  %sub.i.i = add i64 %0, -8
  %1 = inttoptr i64 %sub.i.i to ptr
  %platform_data = getelementptr inbounds i8, ptr %1, i64 168
  %2 = load ptr, ptr %platform_data, align 8
  %3 = load i64, ptr %1, align 8
  store i64 %3, ptr %agg.tmp, align 8
  store ptr null, ptr %1, align 8
  call void @_ZN4node22PerIsolatePlatformData17RunForegroundTaskESt10unique_ptrIN2v84TaskESt14default_deleteIS3_EE(ptr noundef nonnull align 8 dereferenceable(576) %2, ptr noundef nonnull %agg.tmp)
  %cmp.not.i = icmp eq i64 %3, 0
  br i1 %cmp.not.i, label %_ZNSt10unique_ptrIN2v84TaskESt14default_deleteIS1_EED2Ev.exit, label %_ZNKSt14default_deleteIN2v84TaskEEclEPS1_.exit.i

_ZNKSt14default_deleteIN2v84TaskEEclEPS1_.exit.i: ; preds = %entry
  %.cast = inttoptr i64 %3 to ptr
  %vtable.i.i = load ptr, ptr %.cast, align 8
  %vfn.i.i = getelementptr inbounds i8, ptr %vtable.i.i, i64 8
  %4 = load ptr, ptr %vfn.i.i, align 8
  tail call void %4(ptr noundef nonnull align 8 dereferenceable(8) %.cast) #23
  br label %_ZNSt10unique_ptrIN2v84TaskESt14default_deleteIS1_EED2Ev.exit

_ZNSt10unique_ptrIN2v84TaskESt14default_deleteIS1_EED2Ev.exit: ; preds = %entry, %_ZNKSt14default_deleteIN2v84TaskEEclEPS1_.exit.i
  %5 = load ptr, ptr %platform_data, align 8
  tail call void @_ZN4node22PerIsolatePlatformData24DeleteFromScheduledTasksEPNS_11DelayedTaskE(ptr noundef nonnull align 8 dereferenceable(576) %5, ptr noundef nonnull %1)
  ret void
}